target datalayout = "e-m:e-p270:32:32-p271:32:32-p272:64:64-i64:64-i128:128-f80:128-n8:16:32:64-S128"
target triple = "x86_64-pc-linux-gnu"

%struct.diff_queue_struct = type { ptr, i32, i32 }

@.str.353 = private unnamed_addr constant [27 x i8] c"size_t overflow: %lu * %lu\00", align 1

; Function Attrs: inlinehint nounwind uwtable
define internal i64 @st_mult(i64 noundef %0, i64 noundef %1) #2 {
  %3 = alloca i64, align 8
  %4 = alloca i64, align 8
  store i64 %0, ptr %3, align 8, !tbaa !11
  store i64 %1, ptr %4, align 8, !tbaa !11
  %5 = load i64, ptr %3, align 8, !tbaa !11
  %6 = icmp ne i64 %5, 0
  br i1 %6, label %7, label %15

7:                                                ; preds = %2
  %8 = load i64, ptr %4, align 8, !tbaa !11
  %9 = load i64, ptr %3, align 8, !tbaa !11
  %10 = udiv i64 -1, %9
  %11 = icmp ugt i64 %8, %10
  br i1 %11, label %12, label %15

12:                                               ; preds = %7
  %13 = load i64, ptr %3, align 8, !tbaa !11
  %14 = load i64, ptr %4, align 8, !tbaa !11
  call void (ptr, ...) @die(ptr noundef @.str.353, i64 noundef %13, i64 noundef %14) #12
  unreachable

15:                                               ; preds = %7, %2
  %16 = load i64, ptr %3, align 8, !tbaa !11
  %17 = load i64, ptr %4, align 8, !tbaa !11
  %18 = mul i64 %16, %17
  ret i64 %18
}

; Function Attrs: nounwind uwtable
define dso_local void @diff_q(ptr noundef %0, ptr noundef %1) #0 {
  %3 = alloca ptr, align 8
  %4 = alloca ptr, align 8
  store ptr %0, ptr %3, align 8, !tbaa !268
  store ptr %1, ptr %4, align 8, !tbaa !180
  br label %5

5:                                                ; preds = %2
  %6 = load ptr, ptr %3, align 8, !tbaa !268
  %7 = getelementptr inbounds nuw %struct.diff_queue_struct, ptr %6, i32 0, i32 2
  %8 = load i32, ptr %7, align 4, !tbaa !270
  %9 = add nsw i32 %8, 1
  %10 = load ptr, ptr %3, align 8, !tbaa !268
  %11 = getelementptr inbounds nuw %struct.diff_queue_struct, ptr %10, i32 0, i32 1
  %12 = load i32, ptr %11, align 8, !tbaa !273
  %13 = icmp sgt i32 %9, %12
  br i1 %13, label %14, label %54

14:                                               ; preds = %5
  %15 = load ptr, ptr %3, align 8, !tbaa !268
  %16 = getelementptr inbounds nuw %struct.diff_queue_struct, ptr %15, i32 0, i32 1
  %17 = load i32, ptr %16, align 8, !tbaa !273
  %18 = add nsw i32 %17, 16
  %19 = mul nsw i32 %18, 3
  %20 = sdiv i32 %19, 2
  %21 = load ptr, ptr %3, align 8, !tbaa !268
  %22 = getelementptr inbounds nuw %struct.diff_queue_struct, ptr %21, i32 0, i32 2
  %23 = load i32, ptr %22, align 4, !tbaa !270
  %24 = add nsw i32 %23, 1
  %25 = icmp slt i32 %20, %24
  br i1 %25, label %26, label %33

26:                                               ; preds = %14
  %27 = load ptr, ptr %3, align 8, !tbaa !268
  %28 = getelementptr inbounds nuw %struct.diff_queue_struct, ptr %27, i32 0, i32 2
  %29 = load i32, ptr %28, align 4, !tbaa !270
  %30 = add nsw i32 %29, 1
  %31 = load ptr, ptr %3, align 8, !tbaa !268
  %32 = getelementptr inbounds nuw %struct.diff_queue_struct, ptr %31, i32 0, i32 1
  store i32 %30, ptr %32, align 8, !tbaa !273
  br label %42

33:                                               ; preds = %14
  %34 = load ptr, ptr %3, align 8, !tbaa !268
  %35 = getelementptr inbounds nuw %struct.diff_queue_struct, ptr %34, i32 0, i32 1
  %36 = load i32, ptr %35, align 8, !tbaa !273
  %37 = add nsw i32 %36, 16
  %38 = mul nsw i32 %37, 3
  %39 = sdiv i32 %38, 2
  %40 = load ptr, ptr %3, align 8, !tbaa !268
  %41 = getelementptr inbounds nuw %struct.diff_queue_struct, ptr %40, i32 0, i32 1
  store i32 %39, ptr %41, align 8, !tbaa !273
  br label %42

42:                                               ; preds = %33, %26
  %43 = load ptr, ptr %3, align 8, !tbaa !268
  %44 = getelementptr inbounds nuw %struct.diff_queue_struct, ptr %43, i32 0, i32 0
  %45 = load ptr, ptr %44, align 8, !tbaa !274
  %46 = load ptr, ptr %3, align 8, !tbaa !268
  %47 = getelementptr inbounds nuw %struct.diff_queue_struct, ptr %46, i32 0, i32 1
  %48 = load i32, ptr %47, align 8, !tbaa !273
  %49 = sext i32 %48 to i64
  %50 = call i64 @st_mult(i64 noundef 8, i64 noundef %49)
  %51 = call ptr @xrealloc(ptr noundef %45, i64 noundef %50)
  %52 = load ptr, ptr %3, align 8, !tbaa !268
  %53 = getelementptr inbounds nuw %struct.diff_queue_struct, ptr %52, i32 0, i32 0
  store ptr %51, ptr %53, align 8, !tbaa !274
  br label %54

54:                                               ; preds = %42, %5
  br label %55

55:                                               ; preds = %54
  %56 = load ptr, ptr %4, align 8, !tbaa !180
  %57 = load ptr, ptr %3, align 8, !tbaa !268
  %58 = getelementptr inbounds nuw %struct.diff_queue_struct, ptr %57, i32 0, i32 0
  %59 = load ptr, ptr %58, align 8, !tbaa !274
  %60 = load ptr, ptr %3, align 8, !tbaa !268
  %61 = getelementptr inbounds nuw %struct.diff_queue_struct, ptr %60, i32 0, i32 2
  %62 = load i32, ptr %61, align 4, !tbaa !270
  %63 = add nsw i32 %62, 1
  store i32 %63, ptr %61, align 4, !tbaa !270
  %64 = sext i32 %62 to i64
  %65 = getelementptr inbounds ptr, ptr %59, i64 %64
  store ptr %56, ptr %65, align 8, !tbaa !180
  ret void
}