; Function Attrs: nounwind uwtable
define dso_local void @diff_q(ptr noundef captures(none) %0, ptr noundef %1) local_unnamed_addr #0 {
  %3 = getelementptr inbounds nuw i8, ptr %0, i64 12
  %4 = load i32, ptr %3, align 4, !tbaa !172
  %5 = getelementptr inbounds nuw i8, ptr %0, i64 8
  %6 = load i32, ptr %5, align 8, !tbaa !175
  %.not = icmp slt i32 %4, %6
  br i1 %.not, label %._crit_edge, label %7

._crit_edge:                                      ; preds = %2
  %.pre = load ptr, ptr %0, align 8, !tbaa !176
  br label %17

7:                                                ; preds = %2
  %8 = add nsw i32 %4, 1
  %9 = mul i32 %6, 3
  %10 = add i32 %9, 48
  %11 = sdiv i32 %10, 2
  %.not16 = icmp sgt i32 %11, %4
  %. = select i1 %.not16, i32 %11, i32 %8
  store i32 %., ptr %5, align 8, !tbaa !175
  %12 = sext i32 %. to i64
  %mul.ov.i = icmp slt i32 %., 0
  br i1 %mul.ov.i, label %13, label %st_mult.exit

13:                                               ; preds = %7
  tail call void (ptr, ...) @die(ptr noundef nonnull @.str.353, i64 noundef 8, i64 noundef %12) #34
  unreachable

st_mult.exit:                                     ; preds = %7
  %14 = load ptr, ptr %0, align 8, !tbaa !176
  %15 = shl nuw nsw i64 %12, 3
  %16 = tail call ptr @xrealloc(ptr noundef %14, i64 noundef %15) #32
  store ptr %16, ptr %0, align 8, !tbaa !176
  %.pre17 = load i32, ptr %3, align 4, !tbaa !172
  br label %17

17:                                               ; preds = %._crit_edge, %st_mult.exit
  %18 = phi i32 [ %4, %._crit_edge ], [ %.pre17, %st_mult.exit ]
  %19 = phi ptr [ %.pre, %._crit_edge ], [ %16, %st_mult.exit ]
  %20 = add nsw i32 %18, 1
  store i32 %20, ptr %3, align 4, !tbaa !172
  %21 = sext i32 %18 to i64
  %22 = getelementptr inbounds ptr, ptr %19, i64 %21
  store ptr %1, ptr %22, align 8, !tbaa !177
  ret void
}